target datalayout = "e-m:e-p270:32:32-p271:32:32-p272:64:64-i64:64-i128:128-f80:128-n8:16:32:64-S128"
target triple = "x86_64-pc-linux-gnu"

%struct.Map_ManStruct_t_ = type { ptr, i32, ptr, i32, ptr, i32, i32, ptr, ptr, ptr, ptr, ptr, ptr, ptr, i32, i32, i32, i32, float, float, float, float, i32, i32, float, i32, i32, i32, i32, ptr, [6 x [2 x i32]], [10 x [32 x i32]], [32 x i32], [32 x i32], ptr, ptr, ptr, ptr, ptr, ptr, i32, i32, i32, i32, i32, i32, i64, i64, i64, i64, i64, i64, i64, i64, i64, i64, i64 }
%struct.Map_NodeStruct_t_ = type { ptr, ptr, i32, i32, i32, i32, [3 x i32], [3 x float], float, ptr, ptr, ptr, ptr, [2 x %struct.Map_TimeStruct_t_], [2 x %struct.Map_TimeStruct_t_], [2 x ptr], ptr, ptr, ptr }
%struct.Map_TimeStruct_t_ = type { float, float, float }
%struct.Map_CutStruct_t_ = type { ptr, ptr, ptr, [6 x ptr], i32, i8, i8, i8, i8, [2 x %struct.Map_MatchStruct_t_] }
%struct.Map_MatchStruct_t_ = type { ptr, i32, i32, ptr, %struct.Map_TimeStruct_t_, float }
%struct.Map_SuperStruct_t_ = type { i32, i32, [4 x i8], i32, [6 x ptr], ptr, [2 x i32], [6 x %struct.Map_TimeStruct_t_], [6 x %struct.Map_TimeStruct_t_], %struct.Map_TimeStruct_t_, float, ptr, ptr }

; Function Attrs: nounwind uwtable
define void @Map_TimePropagateRequiredPhase(ptr noundef %0, ptr noundef %1, i32 noundef %2) #0 {
  %4 = alloca ptr, align 8
  %5 = alloca ptr, align 8
  %6 = alloca i32, align 4
  %7 = alloca ptr, align 8
  %8 = alloca ptr, align 8
  %9 = alloca ptr, align 8
  %10 = alloca ptr, align 8
  %11 = alloca float, align 4
  %12 = alloca float, align 4
  %13 = alloca i32, align 4
  %14 = alloca i32, align 4
  %15 = alloca i32, align 4
  store ptr %0, ptr %4, align 8
  store ptr %1, ptr %5, align 8
  store i32 %2, ptr %6, align 4
  %16 = load ptr, ptr %5, align 8
  %17 = getelementptr inbounds %struct.Map_NodeStruct_t_, ptr %16, i32 0, i32 0
  %18 = load ptr, ptr %17, align 8
  %19 = getelementptr inbounds %struct.Map_ManStruct_t_, ptr %18, i32 0, i32 10
  %20 = load ptr, ptr %19, align 8
  %21 = icmp ne ptr %20, null
  br i1 %21, label %22, label %34

22:                                               ; preds = %3
  %23 = load ptr, ptr %5, align 8
  %24 = getelementptr inbounds %struct.Map_NodeStruct_t_, ptr %23, i32 0, i32 0
  %25 = load ptr, ptr %24, align 8
  %26 = getelementptr inbounds %struct.Map_ManStruct_t_, ptr %25, i32 0, i32 10
  %27 = load ptr, ptr %26, align 8
  %28 = load ptr, ptr %5, align 8
  %29 = getelementptr inbounds %struct.Map_NodeStruct_t_, ptr %28, i32 0, i32 2
  %30 = load i32, ptr %29, align 8
  %31 = sext i32 %30 to i64
  %32 = getelementptr inbounds float, ptr %27, i64 %31
  %33 = load float, ptr %32, align 4
  br label %35

34:                                               ; preds = %3
  br label %35

35:                                               ; preds = %34, %22
  %36 = phi float [ %33, %22 ], [ 0.000000e+00, %34 ]
  store float %36, ptr %12, align 4
  %37 = load ptr, ptr %5, align 8
  %38 = getelementptr inbounds %struct.Map_NodeStruct_t_, ptr %37, i32 0, i32 15
  %39 = load i32, ptr %6, align 4
  %40 = sext i32 %39 to i64
  %41 = getelementptr inbounds [2 x ptr], ptr %38, i64 0, i64 %40
  %42 = load ptr, ptr %41, align 8
  store ptr %42, ptr %9, align 8
  %43 = load ptr, ptr %9, align 8
  %44 = getelementptr inbounds %struct.Map_CutStruct_t_, ptr %43, i32 0, i32 9
  %45 = load i32, ptr %6, align 4
  %46 = sext i32 %45 to i64
  %47 = getelementptr inbounds [2 x %struct.Map_MatchStruct_t_], ptr %44, i64 0, i64 %46
  %48 = getelementptr inbounds %struct.Map_MatchStruct_t_, ptr %47, i32 0, i32 3
  %49 = load ptr, ptr %48, align 8
  store ptr %49, ptr %10, align 8
  %50 = load ptr, ptr %9, align 8
  %51 = getelementptr inbounds %struct.Map_CutStruct_t_, ptr %50, i32 0, i32 9
  %52 = load i32, ptr %6, align 4
  %53 = sext i32 %52 to i64
  %54 = getelementptr inbounds [2 x %struct.Map_MatchStruct_t_], ptr %51, i64 0, i64 %53
  %55 = getelementptr inbounds %struct.Map_MatchStruct_t_, ptr %54, i32 0, i32 2
  %56 = load i32, ptr %55, align 4
  store i32 %56, ptr %13, align 4
  %57 = load ptr, ptr %5, align 8
  %58 = getelementptr inbounds %struct.Map_NodeStruct_t_, ptr %57, i32 0, i32 14
  %59 = getelementptr inbounds [2 x %struct.Map_TimeStruct_t_], ptr %58, i64 0, i64 0
  %60 = load i32, ptr %6, align 4
  %61 = sext i32 %60 to i64
  %62 = getelementptr inbounds %struct.Map_TimeStruct_t_, ptr %59, i64 %61
  store ptr %62, ptr %8, align 8
  store i32 0, ptr %15, align 4
  br label %63

63:                                               ; preds = %240, %35
  %64 = load i32, ptr %15, align 4
  %65 = load ptr, ptr %9, align 8
  %66 = getelementptr inbounds %struct.Map_CutStruct_t_, ptr %65, i32 0, i32 5
  %67 = load i8, ptr %66, align 4
  %68 = sext i8 %67 to i32
  %69 = icmp slt i32 %64, %68
  br i1 %69, label %70, label %243

70:                                               ; preds = %63
  %71 = load i32, ptr %13, align 4
  %72 = load i32, ptr %15, align 4
  %73 = shl i32 1, %72
  %74 = and i32 %71, %73
  %75 = icmp eq i32 %74, 0
  %76 = zext i1 %75 to i32
  store i32 %76, ptr %14, align 4
  %77 = load ptr, ptr %9, align 8
  %78 = getelementptr inbounds %struct.Map_CutStruct_t_, ptr %77, i32 0, i32 3
  %79 = load i32, ptr %15, align 4
  %80 = sext i32 %79 to i64
  %81 = getelementptr inbounds [6 x ptr], ptr %78, i64 0, i64 %80
  %82 = load ptr, ptr %81, align 8
  %83 = getelementptr inbounds %struct.Map_NodeStruct_t_, ptr %82, i32 0, i32 14
  %84 = getelementptr inbounds [2 x %struct.Map_TimeStruct_t_], ptr %83, i64 0, i64 0
  %85 = load i32, ptr %14, align 4
  %86 = sext i32 %85 to i64
  %87 = getelementptr inbounds %struct.Map_TimeStruct_t_, ptr %84, i64 %86
  store ptr %87, ptr %7, align 8
  %88 = load ptr, ptr %10, align 8
  %89 = getelementptr inbounds %struct.Map_SuperStruct_t_, ptr %88, i32 0, i32 7
  %90 = load i32, ptr %15, align 4
  %91 = sext i32 %90 to i64
  %92 = getelementptr inbounds [6 x %struct.Map_TimeStruct_t_], ptr %89, i64 0, i64 %91
  %93 = getelementptr inbounds %struct.Map_TimeStruct_t_, ptr %92, i32 0, i32 0
  %94 = load float, ptr %93, align 4
  %95 = fcmp ogt float %94, 0.000000e+00
  br i1 %95, label %96, label %125

96:                                               ; preds = %70
  %97 = load ptr, ptr %8, align 8
  %98 = getelementptr inbounds %struct.Map_TimeStruct_t_, ptr %97, i32 0, i32 0
  %99 = load float, ptr %98, align 4
  %100 = load ptr, ptr %10, align 8
  %101 = getelementptr inbounds %struct.Map_SuperStruct_t_, ptr %100, i32 0, i32 7
  %102 = load i32, ptr %15, align 4
  %103 = sext i32 %102 to i64
  %104 = getelementptr inbounds [6 x %struct.Map_TimeStruct_t_], ptr %101, i64 0, i64 %103
  %105 = getelementptr inbounds %struct.Map_TimeStruct_t_, ptr %104, i32 0, i32 0
  %106 = load float, ptr %105, align 4
  %107 = fsub float %99, %106
  %108 = load float, ptr %12, align 4
  %109 = fsub float %107, %108
  store float %109, ptr %11, align 4
  %110 = load ptr, ptr %7, align 8
  %111 = getelementptr inbounds %struct.Map_TimeStruct_t_, ptr %110, i32 0, i32 0
  %112 = load float, ptr %111, align 4
  %113 = load float, ptr %11, align 4
  %114 = fcmp olt float %112, %113
  br i1 %114, label %115, label %119

115:                                              ; preds = %96
  %116 = load ptr, ptr %7, align 8
  %117 = getelementptr inbounds %struct.Map_TimeStruct_t_, ptr %116, i32 0, i32 0
  %118 = load float, ptr %117, align 4
  br label %121

119:                                              ; preds = %96
  %120 = load float, ptr %11, align 4
  br label %121

121:                                              ; preds = %119, %115
  %122 = phi float [ %118, %115 ], [ %120, %119 ]
  %123 = load ptr, ptr %7, align 8
  %124 = getelementptr inbounds %struct.Map_TimeStruct_t_, ptr %123, i32 0, i32 0
  store float %122, ptr %124, align 4
  br label %125

125:                                              ; preds = %121, %70
  %126 = load ptr, ptr %10, align 8
  %127 = getelementptr inbounds %struct.Map_SuperStruct_t_, ptr %126, i32 0, i32 7
  %128 = load i32, ptr %15, align 4
  %129 = sext i32 %128 to i64
  %130 = getelementptr inbounds [6 x %struct.Map_TimeStruct_t_], ptr %127, i64 0, i64 %129
  %131 = getelementptr inbounds %struct.Map_TimeStruct_t_, ptr %130, i32 0, i32 1
  %132 = load float, ptr %131, align 4
  %133 = fcmp ogt float %132, 0.000000e+00
  br i1 %133, label %134, label %163

134:                                              ; preds = %125
  %135 = load ptr, ptr %8, align 8
  %136 = getelementptr inbounds %struct.Map_TimeStruct_t_, ptr %135, i32 0, i32 0
  %137 = load float, ptr %136, align 4
  %138 = load ptr, ptr %10, align 8
  %139 = getelementptr inbounds %struct.Map_SuperStruct_t_, ptr %138, i32 0, i32 7
  %140 = load i32, ptr %15, align 4
  %141 = sext i32 %140 to i64
  %142 = getelementptr inbounds [6 x %struct.Map_TimeStruct_t_], ptr %139, i64 0, i64 %141
  %143 = getelementptr inbounds %struct.Map_TimeStruct_t_, ptr %142, i32 0, i32 1
  %144 = load float, ptr %143, align 4
  %145 = fsub float %137, %144
  %146 = load float, ptr %12, align 4
  %147 = fsub float %145, %146
  store float %147, ptr %11, align 4
  %148 = load ptr, ptr %7, align 8
  %149 = getelementptr inbounds %struct.Map_TimeStruct_t_, ptr %148, i32 0, i32 1
  %150 = load float, ptr %149, align 4
  %151 = load float, ptr %11, align 4
  %152 = fcmp olt float %150, %151
  br i1 %152, label %153, label %157

153:                                              ; preds = %134
  %154 = load ptr, ptr %7, align 8
  %155 = getelementptr inbounds %struct.Map_TimeStruct_t_, ptr %154, i32 0, i32 1
  %156 = load float, ptr %155, align 4
  br label %159

157:                                              ; preds = %134
  %158 = load float, ptr %11, align 4
  br label %159

159:                                              ; preds = %157, %153
  %160 = phi float [ %156, %153 ], [ %158, %157 ]
  %161 = load ptr, ptr %7, align 8
  %162 = getelementptr inbounds %struct.Map_TimeStruct_t_, ptr %161, i32 0, i32 1
  store float %160, ptr %162, align 4
  br label %163

163:                                              ; preds = %159, %125
  %164 = load ptr, ptr %10, align 8
  %165 = getelementptr inbounds %struct.Map_SuperStruct_t_, ptr %164, i32 0, i32 8
  %166 = load i32, ptr %15, align 4
  %167 = sext i32 %166 to i64
  %168 = getelementptr inbounds [6 x %struct.Map_TimeStruct_t_], ptr %165, i64 0, i64 %167
  %169 = getelementptr inbounds %struct.Map_TimeStruct_t_, ptr %168, i32 0, i32 0
  %170 = load float, ptr %169, align 4
  %171 = fcmp ogt float %170, 0.000000e+00
  br i1 %171, label %172, label %201

172:                                              ; preds = %163
  %173 = load ptr, ptr %8, align 8
  %174 = getelementptr inbounds %struct.Map_TimeStruct_t_, ptr %173, i32 0, i32 1
  %175 = load float, ptr %174, align 4
  %176 = load ptr, ptr %10, align 8
  %177 = getelementptr inbounds %struct.Map_SuperStruct_t_, ptr %176, i32 0, i32 8
  %178 = load i32, ptr %15, align 4
  %179 = sext i32 %178 to i64
  %180 = getelementptr inbounds [6 x %struct.Map_TimeStruct_t_], ptr %177, i64 0, i64 %179
  %181 = getelementptr inbounds %struct.Map_TimeStruct_t_, ptr %180, i32 0, i32 0
  %182 = load float, ptr %181, align 4
  %183 = fsub float %175, %182
  %184 = load float, ptr %12, align 4
  %185 = fsub float %183, %184
  store float %185, ptr %11, align 4
  %186 = load ptr, ptr %7, align 8
  %187 = getelementptr inbounds %struct.Map_TimeStruct_t_, ptr %186, i32 0, i32 0
  %188 = load float, ptr %187, align 4
  %189 = load float, ptr %11, align 4
  %190 = fcmp olt float %188, %189
  br i1 %190, label %191, label %195

191:                                              ; preds = %172
  %192 = load ptr, ptr %7, align 8
  %193 = getelementptr inbounds %struct.Map_TimeStruct_t_, ptr %192, i32 0, i32 0
  %194 = load float, ptr %193, align 4
  br label %197

195:                                              ; preds = %172
  %196 = load float, ptr %11, align 4
  br label %197

197:                                              ; preds = %195, %191
  %198 = phi float [ %194, %191 ], [ %196, %195 ]
  %199 = load ptr, ptr %7, align 8
  %200 = getelementptr inbounds %struct.Map_TimeStruct_t_, ptr %199, i32 0, i32 0
  store float %198, ptr %200, align 4
  br label %201

201:                                              ; preds = %197, %163
  %202 = load ptr, ptr %10, align 8
  %203 = getelementptr inbounds %struct.Map_SuperStruct_t_, ptr %202, i32 0, i32 8
  %204 = load i32, ptr %15, align 4
  %205 = sext i32 %204 to i64
  %206 = getelementptr inbounds [6 x %struct.Map_TimeStruct_t_], ptr %203, i64 0, i64 %205
  %207 = getelementptr inbounds %struct.Map_TimeStruct_t_, ptr %206, i32 0, i32 1
  %208 = load float, ptr %207, align 4
  %209 = fcmp ogt float %208, 0.000000e+00
  br i1 %209, label %210, label %239

210:                                              ; preds = %201
  %211 = load ptr, ptr %8, align 8
  %212 = getelementptr inbounds %struct.Map_TimeStruct_t_, ptr %211, i32 0, i32 1
  %213 = load float, ptr %212, align 4
  %214 = load ptr, ptr %10, align 8
  %215 = getelementptr inbounds %struct.Map_SuperStruct_t_, ptr %214, i32 0, i32 8
  %216 = load i32, ptr %15, align 4
  %217 = sext i32 %216 to i64
  %218 = getelementptr inbounds [6 x %struct.Map_TimeStruct_t_], ptr %215, i64 0, i64 %217
  %219 = getelementptr inbounds %struct.Map_TimeStruct_t_, ptr %218, i32 0, i32 1
  %220 = load float, ptr %219, align 4
  %221 = fsub float %213, %220
  %222 = load float, ptr %12, align 4
  %223 = fsub float %221, %222
  store float %223, ptr %11, align 4
  %224 = load ptr, ptr %7, align 8
  %225 = getelementptr inbounds %struct.Map_TimeStruct_t_, ptr %224, i32 0, i32 1
  %226 = load float, ptr %225, align 4
  %227 = load float, ptr %11, align 4
  %228 = fcmp olt float %226, %227
  br i1 %228, label %229, label %233

229:                                              ; preds = %210
  %230 = load ptr, ptr %7, align 8
  %231 = getelementptr inbounds %struct.Map_TimeStruct_t_, ptr %230, i32 0, i32 1
  %232 = load float, ptr %231, align 4
  br label %235

233:                                              ; preds = %210
  %234 = load float, ptr %11, align 4
  br label %235

235:                                              ; preds = %233, %229
  %236 = phi float [ %232, %229 ], [ %234, %233 ]
  %237 = load ptr, ptr %7, align 8
  %238 = getelementptr inbounds %struct.Map_TimeStruct_t_, ptr %237, i32 0, i32 1
  store float %236, ptr %238, align 4
  br label %239

239:                                              ; preds = %235, %201
  br label %240

240:                                              ; preds = %239
  %241 = load i32, ptr %15, align 4
  %242 = add nsw i32 %241, 1
  store i32 %242, ptr %15, align 4
  br label %63, !llvm.loop !7

243:                                              ; preds = %63
  ret void
}