; Function Attrs: nofree norecurse nosync nounwind memory(readwrite, inaccessiblemem: none) uwtable
define void @Map_TimePropagateRequiredPhase(ptr readnone captures(none) %0, ptr noundef readonly captures(none) %1, i32 noundef %2) local_unnamed_addr #3 {
  %4 = load ptr, ptr %1, align 8
  %5 = getelementptr inbounds nuw i8, ptr %4, i64 72
  %6 = load ptr, ptr %5, align 8
  %.not = icmp eq ptr %6, null
  br i1 %.not, label %13, label %7

7:                                                ; preds = %3
  %8 = getelementptr inbounds nuw i8, ptr %1, i64 16
  %9 = load i32, ptr %8, align 8
  %10 = sext i32 %9 to i64
  %11 = getelementptr inbounds float, ptr %6, i64 %10
  %12 = load float, ptr %11, align 4
  br label %13

13:                                               ; preds = %3, %7
  %14 = phi float [ %12, %7 ], [ 0.000000e+00, %3 ]
  %15 = getelementptr inbounds nuw i8, ptr %1, i64 144
  %16 = sext i32 %2 to i64
  %17 = getelementptr inbounds [2 x ptr], ptr %15, i64 0, i64 %16
  %18 = load ptr, ptr %17, align 8
  %19 = getelementptr inbounds nuw i8, ptr %1, i64 120
  %20 = getelementptr inbounds %struct.Map_TimeStruct_t_, ptr %19, i64 %16
  %21 = getelementptr inbounds nuw i8, ptr %18, i64 76
  %22 = load i8, ptr %21, align 4
  %23 = icmp sgt i8 %22, 0
  br i1 %23, label %.lr.ph, label %._crit_edge

.lr.ph:                                           ; preds = %13
  %24 = getelementptr inbounds nuw i8, ptr %18, i64 80
  %25 = getelementptr inbounds [2 x %struct.Map_MatchStruct_t_], ptr %24, i64 0, i64 %16
  %26 = getelementptr inbounds nuw i8, ptr %25, i64 12
  %27 = load i32, ptr %26, align 4
  %28 = getelementptr inbounds nuw i8, ptr %25, i64 16
  %29 = load ptr, ptr %28, align 8
  %30 = xor i32 %27, -1
  %31 = getelementptr inbounds nuw i8, ptr %18, i64 24
  %32 = getelementptr inbounds nuw i8, ptr %29, i64 80
  %33 = getelementptr inbounds nuw i8, ptr %29, i64 152
  %34 = getelementptr inbounds nuw i8, ptr %20, i64 4
  br label %35

35:                                               ; preds = %.lr.ph, %85
  %indvars.iv = phi i64 [ 0, %.lr.ph ], [ %indvars.iv.next, %85 ]
  %36 = trunc nuw nsw i64 %indvars.iv to i32
  %37 = lshr i32 %30, %36
  %38 = and i32 %37, 1
  %39 = getelementptr inbounds nuw [6 x ptr], ptr %31, i64 0, i64 %indvars.iv
  %40 = load ptr, ptr %39, align 8
  %41 = getelementptr inbounds nuw i8, ptr %40, i64 120
  %42 = zext nneg i32 %38 to i64
  %43 = getelementptr inbounds nuw %struct.Map_TimeStruct_t_, ptr %41, i64 %42
  %44 = getelementptr inbounds nuw [6 x %struct.Map_TimeStruct_t_], ptr %32, i64 0, i64 %indvars.iv
  %45 = load float, ptr %44, align 4
  %46 = fcmp ogt float %45, 0.000000e+00
  br i1 %46, label %47, label %53

47:                                               ; preds = %35
  %48 = load float, ptr %20, align 4
  %49 = fsub float %48, %45
  %50 = fsub float %49, %14
  %51 = load float, ptr %43, align 4
  %52 = fcmp olt float %51, %50
  %. = select i1 %52, float %51, float %50
  store float %., ptr %43, align 4
  br label %53

53:                                               ; preds = %47, %35
  %54 = getelementptr inbounds nuw i8, ptr %44, i64 4
  %55 = load float, ptr %54, align 4
  %56 = fcmp ogt float %55, 0.000000e+00
  br i1 %56, label %57, label %64

57:                                               ; preds = %53
  %58 = load float, ptr %20, align 4
  %59 = fsub float %58, %55
  %60 = fsub float %59, %14
  %61 = getelementptr inbounds nuw i8, ptr %43, i64 4
  %62 = load float, ptr %61, align 4
  %63 = fcmp olt float %62, %60
  %.75 = select i1 %63, float %62, float %60
  store float %.75, ptr %61, align 4
  br label %64

64:                                               ; preds = %57, %53
  %65 = getelementptr inbounds nuw [6 x %struct.Map_TimeStruct_t_], ptr %33, i64 0, i64 %indvars.iv
  %66 = load float, ptr %65, align 4
  %67 = fcmp ogt float %66, 0.000000e+00
  br i1 %67, label %68, label %74

68:                                               ; preds = %64
  %69 = load float, ptr %34, align 4
  %70 = fsub float %69, %66
  %71 = fsub float %70, %14
  %72 = load float, ptr %43, align 4
  %73 = fcmp olt float %72, %71
  %.76 = select i1 %73, float %72, float %71
  store float %.76, ptr %43, align 4
  br label %74

74:                                               ; preds = %68, %64
  %75 = getelementptr inbounds nuw i8, ptr %65, i64 4
  %76 = load float, ptr %75, align 4
  %77 = fcmp ogt float %76, 0.000000e+00
  br i1 %77, label %78, label %85

78:                                               ; preds = %74
  %79 = load float, ptr %34, align 4
  %80 = fsub float %79, %76
  %81 = fsub float %80, %14
  %82 = getelementptr inbounds nuw i8, ptr %43, i64 4
  %83 = load float, ptr %82, align 4
  %84 = fcmp olt float %83, %81
  %.77 = select i1 %84, float %83, float %81
  store float %.77, ptr %82, align 4
  br label %85

85:                                               ; preds = %74, %78
  %indvars.iv.next = add nuw nsw i64 %indvars.iv, 1
  %86 = load i8, ptr %21, align 4
  %87 = sext i8 %86 to i64
  %88 = icmp slt i64 %indvars.iv.next, %87
  br i1 %88, label %35, label %._crit_edge, !llvm.loop !7

._crit_edge:                                      ; preds = %85, %13
  ret void
}